target datalayout = "e-m:e-p270:32:32-p271:32:32-p272:64:64-i64:64-i128:128-f80:128-n8:16:32:64-S128"
target triple = "x86_64-pc-linux-gnu"

@hf_elink_hc_mcount_stats_align_errors = internal global i32 0, align 4
@hf_elink_hc_mcount_stats_fcs_errors = internal global i32 0, align 4
@hf_elink_hc_mcount_stats_internal_mac_transmit_errors = internal global i32 0, align 4
@hf_elink_hc_mcount_stats_frame_too_long = internal global i32 0, align 4
@hf_elink_hc_mcount_stats_internal_mac_receive_errors = internal global i32 0, align 4
@hf_elink_hc_mcount_stats_symbol_errors = internal global i32 0, align 4

; Function Attrs: null_pointer_is_valid sspstrong uwtable
define internal i32 @dissect_elink_hc_media_counters(ptr noundef %0, ptr noundef %1, ptr noundef %2, ptr noundef %3, i32 noundef %4, i32 noundef %5) #0 {
  %7 = alloca ptr, align 8
  %8 = alloca ptr, align 8
  %9 = alloca ptr, align 8
  %10 = alloca ptr, align 8
  %11 = alloca i32, align 4
  %12 = alloca i32, align 4
  store ptr %0, ptr %7, align 8
  store ptr %1, ptr %8, align 8
  store ptr %2, ptr %9, align 8
  store ptr %3, ptr %10, align 8
  store i32 %4, ptr %11, align 4
  store i32 %5, ptr %12, align 4
  %13 = load ptr, ptr %8, align 8
  %14 = load i32, ptr @hf_elink_hc_mcount_stats_align_errors, align 4
  %15 = load ptr, ptr %10, align 8
  %16 = load i32, ptr %11, align 4
  %17 = call ptr @proto_tree_add_item(ptr noundef %13, i32 noundef %14, ptr noundef %15, i32 noundef %16, i32 noundef 8, i32 noundef -2147483648)
  %18 = load ptr, ptr %8, align 8
  %19 = load i32, ptr @hf_elink_hc_mcount_stats_fcs_errors, align 4
  %20 = load ptr, ptr %10, align 8
  %21 = load i32, ptr %11, align 4
  %22 = add i32 %21, 8
  %23 = call ptr @proto_tree_add_item(ptr noundef %18, i32 noundef %19, ptr noundef %20, i32 noundef %22, i32 noundef 8, i32 noundef -2147483648)
  %24 = load ptr, ptr %8, align 8
  %25 = load i32, ptr @hf_elink_hc_mcount_stats_internal_mac_transmit_errors, align 4
  %26 = load ptr, ptr %10, align 8
  %27 = load i32, ptr %11, align 4
  %28 = add i32 %27, 16
  %29 = call ptr @proto_tree_add_item(ptr noundef %24, i32 noundef %25, ptr noundef %26, i32 noundef %28, i32 noundef 8, i32 noundef -2147483648)
  %30 = load ptr, ptr %8, align 8
  %31 = load i32, ptr @hf_elink_hc_mcount_stats_frame_too_long, align 4
  %32 = load ptr, ptr %10, align 8
  %33 = load i32, ptr %11, align 4
  %34 = add i32 %33, 24
  %35 = call ptr @proto_tree_add_item(ptr noundef %30, i32 noundef %31, ptr noundef %32, i32 noundef %34, i32 noundef 8, i32 noundef -2147483648)
  %36 = load ptr, ptr %8, align 8
  %37 = load i32, ptr @hf_elink_hc_mcount_stats_internal_mac_receive_errors, align 4
  %38 = load ptr, ptr %10, align 8
  %39 = load i32, ptr %11, align 4
  %40 = add i32 %39, 32
  %41 = call ptr @proto_tree_add_item(ptr noundef %36, i32 noundef %37, ptr noundef %38, i32 noundef %40, i32 noundef 8, i32 noundef -2147483648)
  %42 = load ptr, ptr %8, align 8
  %43 = load i32, ptr @hf_elink_hc_mcount_stats_symbol_errors, align 4
  %44 = load ptr, ptr %10, align 8
  %45 = load i32, ptr %11, align 4
  %46 = add i32 %45, 40
  %47 = call ptr @proto_tree_add_item(ptr noundef %42, i32 noundef %43, ptr noundef %44, i32 noundef %46, i32 noundef 8, i32 noundef -2147483648)
  ret i32 48
}